; ModuleID = '60/1423.c'
source_filename = "60/1423.c"
target datalayout = "e-m:e-p270:32:32-p271:32:32-p272:64:64-i64:64-f80:128-n8:16:32:64-S128"
target triple = "x86_64-pc-linux-gnu"

@.str = private unnamed_addr constant [3 x i8] c"%d\00", align 1
@.str.1 = private unnamed_addr constant [7 x i8] c"%d %d\0A\00", align 1
@.str.2 = private unnamed_addr constant [6 x i8] c"empty\00", align 1

; Function Attrs: noinline nounwind uwtable
define dso_local i32 @main() #0 {
  %1 = alloca i32, align 4
  %2 = alloca i32, align 4
  %3 = alloca i32, align 4
  %4 = alloca i32, align 4
  %5 = alloca i32, align 4
  %6 = alloca i32, align 4
  %7 = alloca [100000 x i32], align 16
  store i32 0, i32* %1, align 4
  %8 = call i32 (i8*, ...) @__isoc99_scanf(i8* getelementptr inbounds ([3 x i8], [3 x i8]* @.str, i64 0, i64 0), i32* %5)
  store i32 0, i32* %6, align 4
  store i32 1, i32* %2, align 4
  br label %9

9:                                                ; preds = %17, %0
  %10 = load i32, i32* %2, align 4
  %11 = load i32, i32* %5, align 4
  %12 = icmp sle i32 %10, %11
  br i1 %12, label %13, label %20

13:                                               ; preds = %9
  %14 = load i32, i32* %2, align 4
  %15 = sext i32 %14 to i64
  %16 = getelementptr inbounds [100000 x i32], [100000 x i32]* %7, i64 0, i64 %15
  store i32 1, i32* %16, align 4
  br label %17

17:                                               ; preds = %13
  %18 = load i32, i32* %2, align 4
  %19 = add nsw i32 %18, 1
  store i32 %19, i32* %2, align 4
  br label %9

20:                                               ; preds = %9
  store i32 1, i32* %2, align 4
  br label %21

21:                                               ; preds = %76, %20
  %22 = load i32, i32* %2, align 4
  %23 = load i32, i32* %5, align 4
  %24 = icmp sle i32 %22, %23
  br i1 %24, label %25, label %79

25:                                               ; preds = %21
  store i32 0, i32* %4, align 4
  store i32 2, i32* %3, align 4
  br label %26

26:                                               ; preds = %39, %25
  %27 = load i32, i32* %3, align 4
  %28 = load i32, i32* %2, align 4
  %29 = icmp slt i32 %27, %28
  br i1 %29, label %30, label %42

30:                                               ; preds = %26
  %31 = load i32, i32* %2, align 4
  %32 = load i32, i32* %3, align 4
  %33 = srem i32 %31, %32
  %34 = icmp ne i32 %33, 0
  br i1 %34, label %35, label %38

35:                                               ; preds = %30
  %36 = load i32, i32* %4, align 4
  %37 = add nsw i32 %36, 1
  store i32 %37, i32* %4, align 4
  br label %38

38:                                               ; preds = %35, %30
  br label %39

39:                                               ; preds = %38
  %40 = load i32, i32* %3, align 4
  %41 = add nsw i32 %40, 1
  store i32 %41, i32* %3, align 4
  br label %26

42:                                               ; preds = %26
  %43 = load i32, i32* %4, align 4
  %44 = load i32, i32* %2, align 4
  %45 = sub nsw i32 %44, 2
  %46 = icmp eq i32 %43, %45
  br i1 %46, label %47, label %51

47:                                               ; preds = %42
  %48 = load i32, i32* %2, align 4
  %49 = sext i32 %48 to i64
  %50 = getelementptr inbounds [100000 x i32], [100000 x i32]* %7, i64 0, i64 %49
  store i32 0, i32* %50, align 4
  br label %51

51:                                               ; preds = %47, %42
  %52 = load i32, i32* %2, align 4
  %53 = sext i32 %52 to i64
  %54 = getelementptr inbounds [100000 x i32], [100000 x i32]* %7, i64 0, i64 %53
  %55 = load i32, i32* %54, align 4
  %56 = icmp eq i32 %55, 0
  br i1 %56, label %57, label %75

57:                                               ; preds = %51
  %58 = load i32, i32* %2, align 4
  %59 = sub nsw i32 %58, 2
  %60 = sext i32 %59 to i64
  %61 = getelementptr inbounds [100000 x i32], [100000 x i32]* %7, i64 0, i64 %60
  %62 = load i32, i32* %61, align 4
  %63 = icmp eq i32 %62, 0
  br i1 %63, label %64, label %75

64:                                               ; preds = %57
  %65 = load i32, i32* %2, align 4
  %66 = sub nsw i32 %65, 2
  %67 = icmp sgt i32 %66, 1
  br i1 %67, label %68, label %75

68:                                               ; preds = %64
  %69 = load i32, i32* %2, align 4
  %70 = sub nsw i32 %69, 2
  %71 = load i32, i32* %2, align 4
  %72 = call i32 (i8*, ...) @printf(i8* getelementptr inbounds ([7 x i8], [7 x i8]* @.str.1, i64 0, i64 0), i32 %70, i32 %71)
  %73 = load i32, i32* %6, align 4
  %74 = add nsw i32 %73, 1
  store i32 %74, i32* %6, align 4
  br label %75

75:                                               ; preds = %68, %64, %57, %51
  br label %76

76:                                               ; preds = %75
  %77 = load i32, i32* %2, align 4
  %78 = add nsw i32 %77, 1
  store i32 %78, i32* %2, align 4
  br label %21

79:                                               ; preds = %21
  %80 = load i32, i32* %6, align 4
  %81 = icmp eq i32 %80, 0
  br i1 %81, label %82, label %84

82:                                               ; preds = %79
  %83 = call i32 (i8*, ...) @printf(i8* getelementptr inbounds ([6 x i8], [6 x i8]* @.str.2, i64 0, i64 0))
  br label %84

84:                                               ; preds = %82, %79
  %85 = load i32, i32* %1, align 4
  ret i32 %85
}

declare dso_local i32 @__isoc99_scanf(i8*, ...) #1

declare dso_local i32 @printf(i8*, ...) #1


!llvm.module.flags = !{!0}
!llvm.ident = !{!1}

!0 = !{i32 1, !"wchar_size", i32 4}
!1 = !{!"clang version 10.0.0-4ubuntu1 "}
